; Function Attrs: nounwind uwtable
define internal range(i32 -1, 1) i32 @H5PB__flush_cb(ptr noundef captures(none) %0, ptr readnone captures(none) %1, ptr noundef %2) #4 {
  %4 = load i8, ptr @H5PB_init_g, align 1, !tbaa !3, !range !7, !noundef !8
  %5 = trunc nuw i8 %4 to i1
  %6 = load i8, ptr @H5_libterm_g, align 1, !range !7
  %7 = trunc nuw i8 %6 to i1
  %8 = xor i1 %7, true
  %9 = select i1 %5, i1 true, i1 %8
  br i1 %9, label %10, label %21, !prof !9

10:                                               ; preds = %3
  %11 = getelementptr inbounds nuw i8, ptr %0, i64 20
  %12 = load i8, ptr %11, align 4, !tbaa !52, !range !7, !noundef !8
  %13 = trunc nuw i8 %12 to i1
  br i1 %13, label %14, label %21

14:                                               ; preds = %10
  %15 = tail call fastcc i32 @H5PB__write_entry(ptr noundef %2, ptr noundef nonnull %0)
  %16 = icmp slt i32 %15, 0
  br i1 %16, label %17, label %21

17:                                               ; preds = %14
  %18 = load i64, ptr @H5E_PAGEBUF_g, align 8, !tbaa !37
  %19 = load i64, ptr @H5E_WRITEERROR_g, align 8, !tbaa !37
  %20 = tail call i32 (ptr, ptr, i32, i64, i64, ptr, ...) @H5E_printf_stack(ptr noundef nonnull @.str.10, ptr noundef nonnull @__func__.H5PB__flush_cb, i32 noundef 367, i64 noundef %18, i64 noundef %19, ptr noundef nonnull @.str.35) #10
  br label %21

21:                                               ; preds = %17, %14, %10, %3
  %.0 = phi i32 [ -1, %17 ], [ 0, %14 ], [ 0, %10 ], [ 0, %3 ]
  ret i32 %.0
}